; Function Attrs: nounwind uwtable
define internal fastcc void @_flush_node_down_cache(ptr noundef %0, i64 noundef %1) unnamed_addr #0 {
  %3 = alloca i32, align 4
  call void @llvm.lifetime.start.p0(i64 4, ptr nonnull %3) #19
  store i32 0, ptr %3, align 4
  %4 = call ptr @next_node_bitmap(ptr noundef %0, ptr noundef nonnull %3) #19
  %.not2 = icmp eq ptr %4, null
  br i1 %.not2, label %._crit_edge, label %.lr.ph

._crit_edge:                                      ; preds = %.lr.ph, %2
  call void @llvm.lifetime.end.p0(i64 4, ptr nonnull %3) #19
  ret void

.lr.ph:                                           ; preds = %2, %.lr.ph
  %5 = phi ptr [ %11, %.lr.ph ], [ %4, %2 ]
  %6 = load ptr, ptr @acct_db_conn, align 8
  %7 = load i32, ptr getelementptr inbounds nuw (i8, ptr @slurm_conf, i64 1152), align 8
  %8 = call i32 @clusteracct_storage_g_node_down(ptr noundef %6, ptr noundef nonnull %5, i64 noundef %1, ptr noundef null, i32 noundef %7) #19
  %9 = load i32, ptr %3, align 4
  %10 = add nsw i32 %9, 1
  store i32 %10, ptr %3, align 4
  %11 = call ptr @next_node_bitmap(ptr noundef %0, ptr noundef nonnull %3) #19
  %.not = icmp eq ptr %11, null
  br i1 %.not, label %._crit_edge, label %.lr.ph, !llvm.loop !51
}